; ModuleID = '8/843.c'
source_filename = "8/843.c"
target datalayout = "e-m:e-p270:32:32-p271:32:32-p272:64:64-i64:64-f80:128-n8:16:32:64-S128"
target triple = "x86_64-pc-linux-gnu"

@.str = private unnamed_addr constant [5 x i8] c"%d%d\00", align 1
@.str.1 = private unnamed_addr constant [3 x i8] c"%d\00", align 1
@.str.2 = private unnamed_addr constant [2 x i8] c" \00", align 1
@.str.3 = private unnamed_addr constant [4 x i8] c" %d\00", align 1

; Function Attrs: noinline nounwind uwtable
define dso_local void @main() #0 {
  %1 = alloca [100 x i32], align 16
  %2 = alloca [100 x i32], align 16
  %3 = alloca i32, align 4
  %4 = alloca i32, align 4
  %5 = alloca i32, align 4
  %6 = alloca i32, align 4
  %7 = alloca i32, align 4
  %8 = call i32 (i8*, ...) @__isoc99_scanf(i8* getelementptr inbounds ([5 x i8], [5 x i8]* @.str, i64 0, i64 0), i32* %6, i32* %7)
  store i32 0, i32* %5, align 4
  br label %9

9:                                                ; preds = %20, %0
  %10 = load i32, i32* %5, align 4
  %11 = load i32, i32* %6, align 4
  %12 = icmp slt i32 %10, %11
  br i1 %12, label %13, label %23

13:                                               ; preds = %9
  %14 = load i32, i32* %5, align 4
  %15 = sext i32 %14 to i64
  %16 = getelementptr inbounds [100 x i32], [100 x i32]* %1, i64 0, i64 %15
  %17 = call i32 (i8*, ...) @__isoc99_scanf(i8* getelementptr inbounds ([3 x i8], [3 x i8]* @.str.1, i64 0, i64 0), i32* %16)
  %18 = load i32, i32* %5, align 4
  %19 = add nsw i32 %18, 1
  store i32 %19, i32* %3, align 4
  br label %20

20:                                               ; preds = %13
  %21 = load i32, i32* %5, align 4
  %22 = add nsw i32 %21, 1
  store i32 %22, i32* %5, align 4
  br label %9

23:                                               ; preds = %9
  store i32 0, i32* %5, align 4
  br label %24

24:                                               ; preds = %35, %23
  %25 = load i32, i32* %5, align 4
  %26 = load i32, i32* %7, align 4
  %27 = icmp slt i32 %25, %26
  br i1 %27, label %28, label %38

28:                                               ; preds = %24
  %29 = load i32, i32* %5, align 4
  %30 = sext i32 %29 to i64
  %31 = getelementptr inbounds [100 x i32], [100 x i32]* %2, i64 0, i64 %30
  %32 = call i32 (i8*, ...) @__isoc99_scanf(i8* getelementptr inbounds ([3 x i8], [3 x i8]* @.str.1, i64 0, i64 0), i32* %31)
  %33 = load i32, i32* %5, align 4
  %34 = add nsw i32 %33, 1
  store i32 %34, i32* %4, align 4
  br label %35

35:                                               ; preds = %28
  %36 = load i32, i32* %5, align 4
  %37 = add nsw i32 %36, 1
  store i32 %37, i32* %5, align 4
  br label %24

38:                                               ; preds = %24
  %39 = getelementptr inbounds [100 x i32], [100 x i32]* %1, i64 0, i64 0
  %40 = load i32, i32* %3, align 4
  call void @maopao(i32* %39, i32 %40)
  %41 = call i32 (i8*, ...) @printf(i8* getelementptr inbounds ([2 x i8], [2 x i8]* @.str.2, i64 0, i64 0))
  %42 = getelementptr inbounds [100 x i32], [100 x i32]* %2, i64 0, i64 0
  %43 = load i32, i32* %4, align 4
  call void @maopao(i32* %42, i32 %43)
  ret void
}

declare dso_local i32 @__isoc99_scanf(i8*, ...) #1

; Function Attrs: noinline nounwind uwtable
define dso_local void @maopao(i32* %0, i32 %1) #0 {
  %3 = alloca i32*, align 8
  %4 = alloca i32, align 4
  %5 = alloca i32, align 4
  %6 = alloca i32, align 4
  %7 = alloca i32, align 4
  store i32* %0, i32** %3, align 8
  store i32 %1, i32* %4, align 4
  store i32 1, i32* %6, align 4
  br label %8

8:                                                ; preds = %59, %2
  %9 = load i32, i32* %6, align 4
  %10 = load i32, i32* %4, align 4
  %11 = icmp slt i32 %9, %10
  br i1 %11, label %12, label %62

12:                                               ; preds = %8
  store i32 0, i32* %5, align 4
  br label %13

13:                                               ; preds = %55, %12
  %14 = load i32, i32* %5, align 4
  %15 = load i32, i32* %4, align 4
  %16 = load i32, i32* %6, align 4
  %17 = sub nsw i32 %15, %16
  %18 = icmp slt i32 %14, %17
  br i1 %18, label %19, label %58

19:                                               ; preds = %13
  %20 = load i32*, i32** %3, align 8
  %21 = load i32, i32* %5, align 4
  %22 = sext i32 %21 to i64
  %23 = getelementptr inbounds i32, i32* %20, i64 %22
  %24 = load i32, i32* %23, align 4
  %25 = load i32*, i32** %3, align 8
  %26 = load i32, i32* %5, align 4
  %27 = add nsw i32 %26, 1
  %28 = sext i32 %27 to i64
  %29 = getelementptr inbounds i32, i32* %25, i64 %28
  %30 = load i32, i32* %29, align 4
  %31 = icmp sgt i32 %24, %30
  br i1 %31, label %32, label %54

32:                                               ; preds = %19
  %33 = load i32*, i32** %3, align 8
  %34 = load i32, i32* %5, align 4
  %35 = add nsw i32 %34, 1
  %36 = sext i32 %35 to i64
  %37 = getelementptr inbounds i32, i32* %33, i64 %36
  %38 = load i32, i32* %37, align 4
  store i32 %38, i32* %7, align 4
  %39 = load i32*, i32** %3, align 8
  %40 = load i32, i32* %5, align 4
  %41 = sext i32 %40 to i64
  %42 = getelementptr inbounds i32, i32* %39, i64 %41
  %43 = load i32, i32* %42, align 4
  %44 = load i32*, i32** %3, align 8
  %45 = load i32, i32* %5, align 4
  %46 = add nsw i32 %45, 1
  %47 = sext i32 %46 to i64
  %48 = getelementptr inbounds i32, i32* %44, i64 %47
  store i32 %43, i32* %48, align 4
  %49 = load i32, i32* %7, align 4
  %50 = load i32*, i32** %3, align 8
  %51 = load i32, i32* %5, align 4
  %52 = sext i32 %51 to i64
  %53 = getelementptr inbounds i32, i32* %50, i64 %52
  store i32 %49, i32* %53, align 4
  br label %54

54:                                               ; preds = %32, %19
  br label %55

55:                                               ; preds = %54
  %56 = load i32, i32* %5, align 4
  %57 = add nsw i32 %56, 1
  store i32 %57, i32* %5, align 4
  br label %13

58:                                               ; preds = %13
  br label %59

59:                                               ; preds = %58
  %60 = load i32, i32* %6, align 4
  %61 = add nsw i32 %60, 1
  store i32 %61, i32* %6, align 4
  br label %8

62:                                               ; preds = %8
  %63 = load i32*, i32** %3, align 8
  %64 = getelementptr inbounds i32, i32* %63, i64 0
  %65 = load i32, i32* %64, align 4
  %66 = call i32 (i8*, ...) @printf(i8* getelementptr inbounds ([3 x i8], [3 x i8]* @.str.1, i64 0, i64 0), i32 %65)
  store i32 1, i32* %5, align 4
  br label %67

67:                                               ; preds = %78, %62
  %68 = load i32, i32* %5, align 4
  %69 = load i32, i32* %4, align 4
  %70 = icmp slt i32 %68, %69
  br i1 %70, label %71, label %81

71:                                               ; preds = %67
  %72 = load i32*, i32** %3, align 8
  %73 = load i32, i32* %5, align 4
  %74 = sext i32 %73 to i64
  %75 = getelementptr inbounds i32, i32* %72, i64 %74
  %76 = load i32, i32* %75, align 4
  %77 = call i32 (i8*, ...) @printf(i8* getelementptr inbounds ([4 x i8], [4 x i8]* @.str.3, i64 0, i64 0), i32 %76)
  br label %78

78:                                               ; preds = %71
  %79 = load i32, i32* %5, align 4
  %80 = add nsw i32 %79, 1
  store i32 %80, i32* %5, align 4
  br label %67

81:                                               ; preds = %67
  ret void
}

declare dso_local i32 @printf(i8*, ...) #1


!llvm.module.flags = !{!0}
!llvm.ident = !{!1}

!0 = !{i32 1, !"wchar_size", i32 4}
!1 = !{!"clang version 10.0.0-4ubuntu1 "}
